target datalayout = "e-m:e-p270:32:32-p271:32:32-p272:64:64-i64:64-i128:128-f80:128-n8:16:32:64-S128"
target triple = "x86_64-pc-linux-gnu"

; Function Attrs: nounwind uwtable
define void @Abc_SortMergeCost2Reverse(ptr noundef %0, ptr noundef %1, ptr noundef %2, ptr noundef %3, ptr noundef %4, ptr noundef %5) #0 {
  %7 = alloca ptr, align 8
  %8 = alloca ptr, align 8
  %9 = alloca ptr, align 8
  %10 = alloca ptr, align 8
  %11 = alloca ptr, align 8
  %12 = alloca ptr, align 8
  %13 = alloca i32, align 4
  %14 = alloca ptr, align 8
  store ptr %0, ptr %7, align 8
  store ptr %1, ptr %8, align 8
  store ptr %2, ptr %9, align 8
  store ptr %3, ptr %10, align 8
  store ptr %4, ptr %11, align 8
  store ptr %5, ptr %12, align 8
  %15 = load ptr, ptr %8, align 8
  %16 = load ptr, ptr %7, align 8
  %17 = ptrtoint ptr %15 to i64
  %18 = ptrtoint ptr %16 to i64
  %19 = sub i64 %17, %18
  %20 = sdiv exact i64 %19, 4
  %21 = load ptr, ptr %10, align 8
  %22 = load ptr, ptr %9, align 8
  %23 = ptrtoint ptr %21 to i64
  %24 = ptrtoint ptr %22 to i64
  %25 = sub i64 %23, %24
  %26 = sdiv exact i64 %25, 4
  %27 = add nsw i64 %20, %26
  %28 = trunc i64 %27 to i32
  store i32 %28, ptr %13, align 4
  %29 = load ptr, ptr %11, align 8
  store ptr %29, ptr %14, align 8
  br label %30

30:                                               ; preds = %92, %6
  %31 = load ptr, ptr %7, align 8
  %32 = load ptr, ptr %8, align 8
  %33 = icmp ult ptr %31, %32
  br i1 %33, label %34, label %38

34:                                               ; preds = %30
  %35 = load ptr, ptr %9, align 8
  %36 = load ptr, ptr %10, align 8
  %37 = icmp ult ptr %35, %36
  br label %38

38:                                               ; preds = %34, %30
  %39 = phi i1 [ false, %30 ], [ %37, %34 ]
  br i1 %39, label %40, label %93

40:                                               ; preds = %38
  %41 = load ptr, ptr %12, align 8
  %42 = load ptr, ptr %7, align 8
  %43 = load i32, ptr %42, align 4
  %44 = sext i32 %43 to i64
  %45 = getelementptr inbounds i32, ptr %41, i64 %44
  %46 = load i32, ptr %45, align 4
  %47 = load ptr, ptr %12, align 8
  %48 = load ptr, ptr %9, align 8
  %49 = load i32, ptr %48, align 4
  %50 = sext i32 %49 to i64
  %51 = getelementptr inbounds i32, ptr %47, i64 %50
  %52 = load i32, ptr %51, align 4
  %53 = icmp eq i32 %46, %52
  br i1 %53, label %54, label %65

54:                                               ; preds = %40
  %55 = load ptr, ptr %7, align 8
  %56 = getelementptr inbounds i32, ptr %55, i32 1
  store ptr %56, ptr %7, align 8
  %57 = load i32, ptr %55, align 4
  %58 = load ptr, ptr %11, align 8
  %59 = getelementptr inbounds i32, ptr %58, i32 1
  store ptr %59, ptr %11, align 8
  store i32 %57, ptr %58, align 4
  %60 = load ptr, ptr %9, align 8
  %61 = getelementptr inbounds i32, ptr %60, i32 1
  store ptr %61, ptr %9, align 8
  %62 = load i32, ptr %60, align 4
  %63 = load ptr, ptr %11, align 8
  %64 = getelementptr inbounds i32, ptr %63, i32 1
  store ptr %64, ptr %11, align 8
  store i32 %62, ptr %63, align 4
  br label %92

65:                                               ; preds = %40
  %66 = load ptr, ptr %12, align 8
  %67 = load ptr, ptr %7, align 8
  %68 = load i32, ptr %67, align 4
  %69 = sext i32 %68 to i64
  %70 = getelementptr inbounds i32, ptr %66, i64 %69
  %71 = load i32, ptr %70, align 4
  %72 = load ptr, ptr %12, align 8
  %73 = load ptr, ptr %9, align 8
  %74 = load i32, ptr %73, align 4
  %75 = sext i32 %74 to i64
  %76 = getelementptr inbounds i32, ptr %72, i64 %75
  %77 = load i32, ptr %76, align 4
  %78 = icmp sgt i32 %71, %77
  br i1 %78, label %79, label %85

79:                                               ; preds = %65
  %80 = load ptr, ptr %7, align 8
  %81 = getelementptr inbounds i32, ptr %80, i32 1
  store ptr %81, ptr %7, align 8
  %82 = load i32, ptr %80, align 4
  %83 = load ptr, ptr %11, align 8
  %84 = getelementptr inbounds i32, ptr %83, i32 1
  store ptr %84, ptr %11, align 8
  store i32 %82, ptr %83, align 4
  br label %91

85:                                               ; preds = %65
  %86 = load ptr, ptr %9, align 8
  %87 = getelementptr inbounds i32, ptr %86, i32 1
  store ptr %87, ptr %9, align 8
  %88 = load i32, ptr %86, align 4
  %89 = load ptr, ptr %11, align 8
  %90 = getelementptr inbounds i32, ptr %89, i32 1
  store ptr %90, ptr %11, align 8
  store i32 %88, ptr %89, align 4
  br label %91

91:                                               ; preds = %85, %79
  br label %92

92:                                               ; preds = %91, %54
  br label %30, !llvm.loop !15

93:                                               ; preds = %38
  br label %94

94:                                               ; preds = %98, %93
  %95 = load ptr, ptr %7, align 8
  %96 = load ptr, ptr %8, align 8
  %97 = icmp ult ptr %95, %96
  br i1 %97, label %98, label %104

98:                                               ; preds = %94
  %99 = load ptr, ptr %7, align 8
  %100 = getelementptr inbounds i32, ptr %99, i32 1
  store ptr %100, ptr %7, align 8
  %101 = load i32, ptr %99, align 4
  %102 = load ptr, ptr %11, align 8
  %103 = getelementptr inbounds i32, ptr %102, i32 1
  store ptr %103, ptr %11, align 8
  store i32 %101, ptr %102, align 4
  br label %94, !llvm.loop !16

104:                                              ; preds = %94
  br label %105

105:                                              ; preds = %109, %104
  %106 = load ptr, ptr %9, align 8
  %107 = load ptr, ptr %10, align 8
  %108 = icmp ult ptr %106, %107
  br i1 %108, label %109, label %115

109:                                              ; preds = %105
  %110 = load ptr, ptr %9, align 8
  %111 = getelementptr inbounds i32, ptr %110, i32 1
  store ptr %111, ptr %9, align 8
  %112 = load i32, ptr %110, align 4
  %113 = load ptr, ptr %11, align 8
  %114 = getelementptr inbounds i32, ptr %113, i32 1
  store ptr %114, ptr %11, align 8
  store i32 %112, ptr %113, align 4
  br label %105, !llvm.loop !17

115:                                              ; preds = %105
  ret void
}